target datalayout = "e-m:e-p270:32:32-p271:32:32-p272:64:64-i64:64-i128:128-f80:128-n8:16:32:64-S128"
target triple = "x86_64-pc-linux-gnu"

%class.Decolor = type { %"class.cv::Mat", %"class.cv::Mat", i32, float }
%"class.cv::Mat" = type { i32, i32, i32, i32, ptr, ptr, ptr, ptr, ptr, ptr, %"struct.cv::MatSize", %"struct.cv::MatStep" }
%"struct.cv::MatSize" = type { ptr }
%"struct.cv::MatStep" = type { ptr, [2 x i64] }

; Function Attrs: inlinehint mustprogress nounwind uwtable
define linkonce_odr hidden noundef nonnull align 4 dereferenceable(4) ptr @_ZN2cv3Mat2atIfEERT_ii(ptr noundef nonnull align 8 dereferenceable(96) %0, i32 noundef %1, i32 noundef %2) #5 comdat align 2 {
  %4 = alloca ptr, align 8
  %5 = alloca i32, align 4
  %6 = alloca i32, align 4
  store ptr %0, ptr %4, align 8, !tbaa !45
  store i32 %1, ptr %5, align 4, !tbaa !31
  store i32 %2, ptr %6, align 4, !tbaa !31
  %7 = load ptr, ptr %4, align 8
  %8 = getelementptr inbounds nuw %"class.cv::Mat", ptr %7, i32 0, i32 4
  %9 = load ptr, ptr %8, align 8, !tbaa !47
  %10 = getelementptr inbounds nuw %"class.cv::Mat", ptr %7, i32 0, i32 11
  %11 = getelementptr inbounds nuw %"struct.cv::MatStep", ptr %10, i32 0, i32 0
  %12 = load ptr, ptr %11, align 8, !tbaa !48
  %13 = getelementptr inbounds i64, ptr %12, i64 0
  %14 = load i64, ptr %13, align 8, !tbaa !12
  %15 = load i32, ptr %5, align 4, !tbaa !31
  %16 = sext i32 %15 to i64
  %17 = mul i64 %14, %16
  %18 = getelementptr inbounds nuw i8, ptr %9, i64 %17
  %19 = load i32, ptr %6, align 4, !tbaa !31
  %20 = sext i32 %19 to i64
  %21 = getelementptr inbounds float, ptr %18, i64 %20
  ret ptr %21
}

; Function Attrs: mustprogress uwtable
define hidden void @_ZN7DecolorC2Ev(ptr noundef nonnull align 8 dereferenceable(200) %0) unnamed_addr #0 align 2 personality ptr @__gxx_personality_v0 {
  %2 = alloca ptr, align 8
  %3 = alloca %"class.cv::Mat", align 8
  %4 = alloca ptr, align 8
  %5 = alloca i32, align 4
  %6 = alloca %"class.cv::Mat", align 8
  store ptr %0, ptr %2, align 8, !tbaa !3
  %7 = load ptr, ptr %2, align 8
  %8 = getelementptr inbounds nuw %class.Decolor, ptr %7, i32 0, i32 0
  call void @_ZN2cv3MatC1Ev(ptr noundef nonnull align 8 dereferenceable(96) %8) #17
  %9 = getelementptr inbounds nuw %class.Decolor, ptr %7, i32 0, i32 1
  call void @_ZN2cv3MatC1Ev(ptr noundef nonnull align 8 dereferenceable(96) %9) #17
  call void @llvm.lifetime.start.p0(i64 96, ptr %3) #17
  invoke void @_ZN2cv3MatC1Eiii(ptr noundef nonnull align 8 dereferenceable(96) %3, i32 noundef 1, i32 noundef 2, i32 noundef 5)
          to label %10 unwind label %32

10:                                               ; preds = %1
  %11 = getelementptr inbounds nuw %class.Decolor, ptr %7, i32 0, i32 0
  %12 = invoke noundef nonnull align 8 dereferenceable(96) ptr @_ZN2cv3MataSEOS0_(ptr noundef nonnull align 8 dereferenceable(96) %11, ptr noundef nonnull align 8 dereferenceable(96) %3)
          to label %13 unwind label %36

13:                                               ; preds = %10
  call void @_ZN2cv3MatD1Ev(ptr noundef nonnull align 8 dereferenceable(96) %3) #17
  call void @llvm.lifetime.end.p0(i64 96, ptr %3) #17
  call void @llvm.lifetime.start.p0(i64 96, ptr %6) #17
  invoke void @_ZN2cv3MatC1Eiii(ptr noundef nonnull align 8 dereferenceable(96) %6, i32 noundef 2, i32 noundef 1, i32 noundef 5)
          to label %14 unwind label %41

14:                                               ; preds = %13
  %15 = getelementptr inbounds nuw %class.Decolor, ptr %7, i32 0, i32 1
  %16 = invoke noundef nonnull align 8 dereferenceable(96) ptr @_ZN2cv3MataSEOS0_(ptr noundef nonnull align 8 dereferenceable(96) %15, ptr noundef nonnull align 8 dereferenceable(96) %6)
          to label %17 unwind label %45

17:                                               ; preds = %14
  call void @_ZN2cv3MatD1Ev(ptr noundef nonnull align 8 dereferenceable(96) %6) #17
  call void @llvm.lifetime.end.p0(i64 96, ptr %6) #17
  %18 = getelementptr inbounds nuw %class.Decolor, ptr %7, i32 0, i32 0
  %19 = invoke noundef nonnull align 4 dereferenceable(4) ptr @_ZN2cv3Mat2atIfEERT_ii(ptr noundef nonnull align 8 dereferenceable(96) %18, i32 noundef 0, i32 noundef 0)
          to label %20 unwind label %50

20:                                               ; preds = %17
  store float 1.000000e+00, ptr %19, align 4, !tbaa !43
  %21 = getelementptr inbounds nuw %class.Decolor, ptr %7, i32 0, i32 0
  %22 = invoke noundef nonnull align 4 dereferenceable(4) ptr @_ZN2cv3Mat2atIfEERT_ii(ptr noundef nonnull align 8 dereferenceable(96) %21, i32 noundef 0, i32 noundef 1)
          to label %23 unwind label %50

23:                                               ; preds = %20
  store float -1.000000e+00, ptr %22, align 4, !tbaa !43
  %24 = getelementptr inbounds nuw %class.Decolor, ptr %7, i32 0, i32 1
  %25 = invoke noundef nonnull align 4 dereferenceable(4) ptr @_ZN2cv3Mat2atIfEERT_ii(ptr noundef nonnull align 8 dereferenceable(96) %24, i32 noundef 0, i32 noundef 0)
          to label %26 unwind label %50

26:                                               ; preds = %23
  store float 1.000000e+00, ptr %25, align 4, !tbaa !43
  %27 = getelementptr inbounds nuw %class.Decolor, ptr %7, i32 0, i32 1
  %28 = invoke noundef nonnull align 4 dereferenceable(4) ptr @_ZN2cv3Mat2atIfEERT_ii(ptr noundef nonnull align 8 dereferenceable(96) %27, i32 noundef 1, i32 noundef 0)
          to label %29 unwind label %50

29:                                               ; preds = %26
  store float -1.000000e+00, ptr %28, align 4, !tbaa !43
  %30 = getelementptr inbounds nuw %class.Decolor, ptr %7, i32 0, i32 2
  store i32 2, ptr %30, align 8, !tbaa !44
  %31 = getelementptr inbounds nuw %class.Decolor, ptr %7, i32 0, i32 3
  store float 0x3F947AE140000000, ptr %31, align 4, !tbaa !19
  ret void

32:                                               ; preds = %1
  %33 = landingpad { ptr, i32 }
          cleanup
  %34 = extractvalue { ptr, i32 } %33, 0
  store ptr %34, ptr %4, align 8
  %35 = extractvalue { ptr, i32 } %33, 1
  store i32 %35, ptr %5, align 4
  br label %40

36:                                               ; preds = %10
  %37 = landingpad { ptr, i32 }
          cleanup
  %38 = extractvalue { ptr, i32 } %37, 0
  store ptr %38, ptr %4, align 8
  %39 = extractvalue { ptr, i32 } %37, 1
  store i32 %39, ptr %5, align 4
  call void @_ZN2cv3MatD1Ev(ptr noundef nonnull align 8 dereferenceable(96) %3) #17
  br label %40

40:                                               ; preds = %36, %32
  call void @llvm.lifetime.end.p0(i64 96, ptr %3) #17
  br label %54

41:                                               ; preds = %13
  %42 = landingpad { ptr, i32 }
          cleanup
  %43 = extractvalue { ptr, i32 } %42, 0
  store ptr %43, ptr %4, align 8
  %44 = extractvalue { ptr, i32 } %42, 1
  store i32 %44, ptr %5, align 4
  br label %49

45:                                               ; preds = %14
  %46 = landingpad { ptr, i32 }
          cleanup
  %47 = extractvalue { ptr, i32 } %46, 0
  store ptr %47, ptr %4, align 8
  %48 = extractvalue { ptr, i32 } %46, 1
  store i32 %48, ptr %5, align 4
  call void @_ZN2cv3MatD1Ev(ptr noundef nonnull align 8 dereferenceable(96) %6) #17
  br label %49

49:                                               ; preds = %45, %41
  call void @llvm.lifetime.end.p0(i64 96, ptr %6) #17
  br label %54

50:                                               ; preds = %26, %23, %20, %17
  %51 = landingpad { ptr, i32 }
          cleanup
  %52 = extractvalue { ptr, i32 } %51, 0
  store ptr %52, ptr %4, align 8
  %53 = extractvalue { ptr, i32 } %51, 1
  store i32 %53, ptr %5, align 4
  br label %54

54:                                               ; preds = %50, %49, %40
  call void @_ZN2cv3MatD1Ev(ptr noundef nonnull align 8 dereferenceable(96) %9) #17
  call void @_ZN2cv3MatD1Ev(ptr noundef nonnull align 8 dereferenceable(96) %8) #17
  br label %55

55:                                               ; preds = %54
  %56 = load ptr, ptr %4, align 8
  %57 = load i32, ptr %5, align 4
  %58 = insertvalue { ptr, i32 } poison, ptr %56, 0
  %59 = insertvalue { ptr, i32 } %58, i32 %57, 1
  resume { ptr, i32 } %59
}