; Function Attrs: mustprogress uwtable
define hidden void @_ZN7DecolorC2Ev(ptr noundef nonnull align 8 dereferenceable(200) %0) unnamed_addr #0 align 2 personality ptr @__gxx_personality_v0 {
  %2 = alloca %"class.cv::Mat", align 8
  %3 = alloca %"class.cv::Mat", align 8
  tail call void @_ZN2cv3MatC1Ev(ptr noundef nonnull align 8 dereferenceable(96) %0) #23
  %4 = getelementptr inbounds nuw i8, ptr %0, i64 96
  tail call void @_ZN2cv3MatC1Ev(ptr noundef nonnull align 8 dereferenceable(96) %4) #23
  call void @llvm.lifetime.start.p0(i64 96, ptr nonnull %2) #23
  invoke void @_ZN2cv3MatC1Eiii(ptr noundef nonnull align 8 dereferenceable(96) %2, i32 noundef 1, i32 noundef 2, i32 noundef 5)
          to label %5 unwind label %22

5:                                                ; preds = %1
  %6 = invoke noundef nonnull align 8 dereferenceable(96) ptr @_ZN2cv3MataSEOS0_(ptr noundef nonnull align 8 dereferenceable(96) %0, ptr noundef nonnull align 8 dereferenceable(96) %2)
          to label %7 unwind label %24

7:                                                ; preds = %5
  call void @_ZN2cv3MatD1Ev(ptr noundef nonnull align 8 dereferenceable(96) %2) #23
  call void @llvm.lifetime.end.p0(i64 96, ptr nonnull %2) #23
  call void @llvm.lifetime.start.p0(i64 96, ptr nonnull %3) #23
  invoke void @_ZN2cv3MatC1Eiii(ptr noundef nonnull align 8 dereferenceable(96) %3, i32 noundef 2, i32 noundef 1, i32 noundef 5)
          to label %8 unwind label %27

8:                                                ; preds = %7
  %9 = invoke noundef nonnull align 8 dereferenceable(96) ptr @_ZN2cv3MataSEOS0_(ptr noundef nonnull align 8 dereferenceable(96) %4, ptr noundef nonnull align 8 dereferenceable(96) %3)
          to label %10 unwind label %29

10:                                               ; preds = %8
  call void @_ZN2cv3MatD1Ev(ptr noundef nonnull align 8 dereferenceable(96) %3) #23
  call void @llvm.lifetime.end.p0(i64 96, ptr nonnull %3) #23
  %11 = getelementptr inbounds nuw i8, ptr %0, i64 16
  %12 = load ptr, ptr %11, align 8, !tbaa !34
  store float 1.000000e+00, ptr %12, align 4, !tbaa !35
  %13 = getelementptr inbounds nuw i8, ptr %12, i64 4
  store float -1.000000e+00, ptr %13, align 4, !tbaa !35
  %14 = getelementptr inbounds nuw i8, ptr %0, i64 112
  %15 = load ptr, ptr %14, align 8, !tbaa !34
  %16 = getelementptr inbounds nuw i8, ptr %0, i64 168
  %17 = load ptr, ptr %16, align 8, !tbaa !36
  store float 1.000000e+00, ptr %15, align 4, !tbaa !35
  %18 = load i64, ptr %17, align 8, !tbaa !37
  %19 = getelementptr inbounds nuw i8, ptr %15, i64 %18
  store float -1.000000e+00, ptr %19, align 4, !tbaa !35
  %20 = getelementptr inbounds nuw i8, ptr %0, i64 192
  store i32 2, ptr %20, align 8, !tbaa !39
  %21 = getelementptr inbounds nuw i8, ptr %0, i64 196
  store float 0x3F947AE140000000, ptr %21, align 4, !tbaa !19
  ret void

22:                                               ; preds = %1
  %23 = landingpad { ptr, i32 }
          cleanup
  br label %26

24:                                               ; preds = %5
  %25 = landingpad { ptr, i32 }
          cleanup
  call void @_ZN2cv3MatD1Ev(ptr noundef nonnull align 8 dereferenceable(96) %2) #23
  br label %26

26:                                               ; preds = %24, %22
  %.pn = phi { ptr, i32 } [ %25, %24 ], [ %23, %22 ]
  call void @llvm.lifetime.end.p0(i64 96, ptr nonnull %2) #23
  br label %32

27:                                               ; preds = %7
  %28 = landingpad { ptr, i32 }
          cleanup
  br label %31

29:                                               ; preds = %8
  %30 = landingpad { ptr, i32 }
          cleanup
  call void @_ZN2cv3MatD1Ev(ptr noundef nonnull align 8 dereferenceable(96) %3) #23
  br label %31

31:                                               ; preds = %29, %27
  %.pn6 = phi { ptr, i32 } [ %30, %29 ], [ %28, %27 ]
  call void @llvm.lifetime.end.p0(i64 96, ptr nonnull %3) #23
  br label %32

32:                                               ; preds = %31, %26
  %.pn6.pn = phi { ptr, i32 } [ %.pn6, %31 ], [ %.pn, %26 ]
  call void @_ZN2cv3MatD1Ev(ptr noundef nonnull align 8 dereferenceable(96) %4) #23
  call void @_ZN2cv3MatD1Ev(ptr noundef nonnull align 8 dereferenceable(96) %0) #23
  resume { ptr, i32 } %.pn6.pn
}